; Function Attrs: mustprogress uwtable
define void @_ZN5Ipopt16NLPScalingObject31apply_grad_obj_scaling_NonConstERKNS_8SmartPtrIKNS_6VectorEEE(ptr dead_on_unwind noalias writable sret(%"class.Ipopt::SmartPtr.0") align 8 %0, ptr noundef nonnull align 8 dereferenceable(24) %1, ptr noundef nonnull align 8 dereferenceable(8) %2) unnamed_addr #7 align 2 personality ptr @__gxx_personality_v0 {
  %4 = alloca double, align 8
  %5 = load ptr, ptr %1, align 8, !tbaa !8
  %6 = getelementptr inbounds nuw i8, ptr %5, i64 48
  %7 = load ptr, ptr %6, align 8
  tail call void %7(ptr dead_on_unwind writable sret(%"class.Ipopt::SmartPtr.0") align 8 %0, ptr noundef nonnull align 8 dereferenceable(24) %1, ptr noundef nonnull align 8 dereferenceable(8) %2)
  call void @llvm.lifetime.start.p0(i64 8, ptr nonnull %4) #17
  store double 1.000000e+00, ptr %4, align 8, !tbaa !68
  %8 = load ptr, ptr %1, align 8, !tbaa !8
  %9 = getelementptr inbounds nuw i8, ptr %8, i64 16
  %10 = load ptr, ptr %9, align 8
  %11 = invoke noundef double %10(ptr noundef nonnull align 8 dereferenceable(24) %1, ptr noundef nonnull align 8 dereferenceable(8) %4)
          to label %12 unwind label %16

12:                                               ; preds = %3
  call void @llvm.lifetime.end.p0(i64 8, ptr nonnull %4) #17
  %13 = fcmp une double %11, 1.000000e+00
  br i1 %13, label %14, label %31

14:                                               ; preds = %12
  %15 = load ptr, ptr %0, align 8, !tbaa !20
  invoke void @_ZN5Ipopt6Vector4ScalEd(ptr noundef nonnull align 8 dereferenceable(205) %15, double noundef %11)
          to label %31 unwind label %18

16:                                               ; preds = %3
  %17 = landingpad { ptr, i32 }
          cleanup
  call void @llvm.lifetime.end.p0(i64 8, ptr nonnull %4) #17
  br label %20

18:                                               ; preds = %14
  %19 = landingpad { ptr, i32 }
          cleanup
  br label %20

20:                                               ; preds = %18, %16
  %.pn = phi { ptr, i32 } [ %19, %18 ], [ %17, %16 ]
  %21 = load ptr, ptr %0, align 8, !tbaa !20
  %.not.i.i = icmp eq ptr %21, null
  br i1 %.not.i.i, label %_ZN5Ipopt8SmartPtrINS_6VectorEED2Ev.exit, label %22

22:                                               ; preds = %20
  %23 = getelementptr inbounds nuw i8, ptr %21, i64 8
  %24 = load i32, ptr %23, align 8, !tbaa !3
  %25 = add nsw i32 %24, -1
  store i32 %25, ptr %23, align 8, !tbaa !3
  %26 = icmp eq i32 %25, 0
  br i1 %26, label %27, label %_ZN5Ipopt8SmartPtrINS_6VectorEED2Ev.exit

27:                                               ; preds = %22
  %28 = load ptr, ptr %21, align 8, !tbaa !8
  %29 = getelementptr inbounds nuw i8, ptr %28, i64 8
  %30 = load ptr, ptr %29, align 8
  call void %30(ptr noundef nonnull align 8 dereferenceable(205) %21) #17
  store ptr null, ptr %0, align 8, !tbaa !20
  br label %_ZN5Ipopt8SmartPtrINS_6VectorEED2Ev.exit

_ZN5Ipopt8SmartPtrINS_6VectorEED2Ev.exit:         ; preds = %20, %22, %27
  resume { ptr, i32 } %.pn

31:                                               ; preds = %12, %14
  ret void
}